target datalayout = "e-m:e-p270:32:32-p271:32:32-p272:64:64-i64:64-i128:128-f80:128-n8:16:32:64-S128"
target triple = "x86_64-pc-linux-gnu"

@.str.46 = private unnamed_addr constant [12 x i8] c"__metatable\00", align 1

; Function Attrs: nounwind uwtable
define internal i32 @luaB_getmetatable(ptr noundef %0) #0 {
  %2 = alloca i32, align 4
  %3 = alloca ptr, align 8
  store ptr %0, ptr %3, align 8, !tbaa !4
  %4 = load ptr, ptr %3, align 8, !tbaa !4
  call void @luaL_checkany(ptr noundef %4, i32 noundef 1)
  %5 = load ptr, ptr %3, align 8, !tbaa !4
  %6 = call i32 @lua_getmetatable(ptr noundef %5, i32 noundef 1)
  %7 = icmp ne i32 %6, 0
  br i1 %7, label %10, label %8

8:                                                ; preds = %1
  %9 = load ptr, ptr %3, align 8, !tbaa !4
  call void @lua_pushnil(ptr noundef %9)
  store i32 1, ptr %2, align 4
  br label %13

10:                                               ; preds = %1
  %11 = load ptr, ptr %3, align 8, !tbaa !4
  %12 = call i32 @luaL_getmetafield(ptr noundef %11, i32 noundef 1, ptr noundef @.str.46)
  store i32 1, ptr %2, align 4
  br label %13

13:                                               ; preds = %10, %8
  %14 = load i32, ptr %2, align 4
  ret i32 %14
}